; Function Attrs: mustprogress uwtable
define void @_ZNK7openvdb5v11_06points12AttributeSet13writeMetadataERSobb(ptr nocapture noundef nonnull readonly align 8 dereferenceable(40) %this, ptr noundef nonnull align 8 dereferenceable(8) %os, i1 noundef zeroext %outputTransient, i1 noundef zeroext %paged) local_unnamed_addr #3 align 2 {
entry:
  %mAttrs.i = getelementptr inbounds i8, ptr %this, i64 16
  %_M_finish.i.i = getelementptr inbounds i8, ptr %this, i64 24
  %0 = load ptr, ptr %_M_finish.i.i, align 8
  %1 = load ptr, ptr %mAttrs.i, align 8
  %cmp8.not = icmp eq ptr %0, %1
  br i1 %cmp8.not, label %for.end, label %for.body

for.body:                                         ; preds = %entry, %for.body
  %2 = phi ptr [ %6, %for.body ], [ %1, %entry ]
  %i.09 = phi i64 [ %inc, %for.body ], [ 0, %entry ]
  %add.ptr.i.i = getelementptr inbounds %"class.std::shared_ptr.18", ptr %2, i64 %i.09
  %3 = load ptr, ptr %add.ptr.i.i, align 8
  %vtable = load ptr, ptr %3, align 8
  %vfn = getelementptr inbounds i8, ptr %vtable, i64 208
  %4 = load ptr, ptr %vfn, align 8
  tail call void %4(ptr noundef nonnull align 8 dereferenceable(24) %3, ptr noundef nonnull align 8 dereferenceable(8) %os, i1 noundef zeroext %outputTransient, i1 noundef zeroext %paged)
  %inc = add nuw i64 %i.09, 1
  %5 = load ptr, ptr %_M_finish.i.i, align 8
  %6 = load ptr, ptr %mAttrs.i, align 8
  %sub.ptr.lhs.cast.i.i = ptrtoint ptr %5 to i64
  %sub.ptr.rhs.cast.i.i = ptrtoint ptr %6 to i64
  %sub.ptr.sub.i.i = sub i64 %sub.ptr.lhs.cast.i.i, %sub.ptr.rhs.cast.i.i
  %sub.ptr.div.i.i = ashr exact i64 %sub.ptr.sub.i.i, 4
  %cmp = icmp ult i64 %inc, %sub.ptr.div.i.i
  br i1 %cmp, label %for.body, label %for.end, !llvm.loop !46

for.end:                                          ; preds = %for.body, %entry
  ret void
}